target datalayout = "e-m:e-p270:32:32-p271:32:32-p272:64:64-i64:64-i128:128-f80:128-n8:16:32:64-S128"
target triple = "x86_64-pc-linux-gnu"

%struct.read_file_data = type { i32, i64, ptr, i32, i8, i32, %union.anon }
%union.anon = type { [1 x i32] }

; Function Attrs: nounwind uwtable
define internal i32 @file_close2(ptr noundef %0, ptr noundef %1) #0 {
  %3 = alloca ptr, align 8
  %4 = alloca ptr, align 8
  %5 = alloca ptr, align 8
  %6 = alloca i64, align 8
  store ptr %0, ptr %3, align 8
  store ptr %1, ptr %4, align 8
  %7 = load ptr, ptr %4, align 8
  store ptr %7, ptr %5, align 8
  %8 = load ptr, ptr %5, align 8
  %9 = getelementptr inbounds %struct.read_file_data, ptr %8, i32 0, i32 0
  %10 = load i32, ptr %9, align 8
  %11 = icmp sge i32 %10, 0
  br i1 %11, label %12, label %57

12:                                               ; preds = %2
  %13 = load ptr, ptr %5, align 8
  %14 = getelementptr inbounds %struct.read_file_data, ptr %13, i32 0, i32 3
  %15 = load i32, ptr %14, align 8
  %16 = and i32 %15, 61440
  %17 = icmp eq i32 %16, 32768
  br i1 %17, label %46, label %18

18:                                               ; preds = %12
  %19 = load ptr, ptr %5, align 8
  %20 = getelementptr inbounds %struct.read_file_data, ptr %19, i32 0, i32 3
  %21 = load i32, ptr %20, align 8
  %22 = and i32 %21, 61440
  %23 = icmp eq i32 %22, 8192
  br i1 %23, label %46, label %24

24:                                               ; preds = %18
  %25 = load ptr, ptr %5, align 8
  %26 = getelementptr inbounds %struct.read_file_data, ptr %25, i32 0, i32 3
  %27 = load i32, ptr %26, align 8
  %28 = and i32 %27, 61440
  %29 = icmp eq i32 %28, 24576
  br i1 %29, label %46, label %30

30:                                               ; preds = %24
  br label %31

31:                                               ; preds = %42, %30
  %32 = load ptr, ptr %5, align 8
  %33 = getelementptr inbounds %struct.read_file_data, ptr %32, i32 0, i32 0
  %34 = load i32, ptr %33, align 8
  %35 = load ptr, ptr %5, align 8
  %36 = getelementptr inbounds %struct.read_file_data, ptr %35, i32 0, i32 2
  %37 = load ptr, ptr %36, align 8
  %38 = load ptr, ptr %5, align 8
  %39 = getelementptr inbounds %struct.read_file_data, ptr %38, i32 0, i32 1
  %40 = load i64, ptr %39, align 8
  %41 = call i64 @read(i32 noundef %34, ptr noundef %37, i64 noundef %40)
  store i64 %41, ptr %6, align 8
  br label %42

42:                                               ; preds = %31
  %43 = load i64, ptr %6, align 8
  %44 = icmp sgt i64 %43, 0
  br i1 %44, label %31, label %45, !llvm.loop !8

45:                                               ; preds = %42
  br label %46

46:                                               ; preds = %45, %24, %18, %12
  %47 = load ptr, ptr %5, align 8
  %48 = getelementptr inbounds %struct.read_file_data, ptr %47, i32 0, i32 5
  %49 = load i32, ptr %48, align 8
  %50 = icmp ne i32 %49, 0
  br i1 %50, label %51, label %56

51:                                               ; preds = %46
  %52 = load ptr, ptr %5, align 8
  %53 = getelementptr inbounds %struct.read_file_data, ptr %52, i32 0, i32 0
  %54 = load i32, ptr %53, align 8
  %55 = call i32 @close(i32 noundef %54)
  br label %56

56:                                               ; preds = %51, %46
  br label %57

57:                                               ; preds = %56, %2
  %58 = load ptr, ptr %5, align 8
  %59 = getelementptr inbounds %struct.read_file_data, ptr %58, i32 0, i32 2
  %60 = load ptr, ptr %59, align 8
  call void @free(ptr noundef %60) #9
  %61 = load ptr, ptr %5, align 8
  %62 = getelementptr inbounds %struct.read_file_data, ptr %61, i32 0, i32 2
  store ptr null, ptr %62, align 8
  %63 = load ptr, ptr %5, align 8
  %64 = getelementptr inbounds %struct.read_file_data, ptr %63, i32 0, i32 0
  store i32 -1, ptr %64, align 8
  ret i32 0
}

; Function Attrs: nounwind uwtable
define internal i32 @file_close(ptr noundef %0, ptr noundef %1) #0 {
  %3 = alloca ptr, align 8
  %4 = alloca ptr, align 8
  %5 = alloca ptr, align 8
  store ptr %0, ptr %3, align 8
  store ptr %1, ptr %4, align 8
  %6 = load ptr, ptr %4, align 8
  store ptr %6, ptr %5, align 8
  %7 = load ptr, ptr %3, align 8
  %8 = load ptr, ptr %4, align 8
  %9 = call i32 @file_close2(ptr noundef %7, ptr noundef %8)
  %10 = load ptr, ptr %5, align 8
  call void @free(ptr noundef %10) #9
  ret i32 0
}