; Function Attrs: nounwind uwtable
define internal noundef i32 @file_close(ptr readnone captures(none) %0, ptr noundef captures(none) %1) #0 {
  %3 = load i32, ptr %1, align 8
  %4 = icmp sgt i32 %3, -1
  br i1 %4, label %5, label %file_close2.exit

5:                                                ; preds = %2
  %6 = getelementptr inbounds nuw i8, ptr %1, i64 24
  %7 = load i32, ptr %6, align 8
  %8 = trunc i32 %7 to i16
  %trunc.i = and i16 %8, -4096
  switch i16 %trunc.i, label %.preheader.i [
    i16 -32768, label %.loopexit.i
    i16 8192, label %.loopexit.i
    i16 24576, label %.loopexit.i
  ]

.preheader.i:                                     ; preds = %5
  %9 = getelementptr inbounds nuw i8, ptr %1, i64 16
  %10 = getelementptr inbounds nuw i8, ptr %1, i64 8
  br label %11

11:                                               ; preds = %11, %.preheader.i
  %12 = load i32, ptr %1, align 8
  %13 = load ptr, ptr %9, align 8
  %14 = load i64, ptr %10, align 8
  %15 = tail call i64 @read(i32 noundef %12, ptr noundef %13, i64 noundef %14) #14
  %16 = icmp sgt i64 %15, 0
  br i1 %16, label %11, label %.loopexit.i, !llvm.loop !8

.loopexit.i:                                      ; preds = %11, %5, %5, %5
  %17 = getelementptr inbounds nuw i8, ptr %1, i64 32
  %18 = load i32, ptr %17, align 8
  %.not.i = icmp eq i32 %18, 0
  br i1 %.not.i, label %file_close2.exit, label %19

19:                                               ; preds = %.loopexit.i
  %20 = load i32, ptr %1, align 8
  %21 = tail call i32 @close(i32 noundef %20) #14
  br label %file_close2.exit

file_close2.exit:                                 ; preds = %2, %.loopexit.i, %19
  %22 = getelementptr inbounds nuw i8, ptr %1, i64 16
  %23 = load ptr, ptr %22, align 8
  tail call void @free(ptr noundef %23) #14
  tail call void @free(ptr noundef nonnull %1) #14
  ret i32 0
}